Certificate:
    Data:
        Version: 1 (0x0)
        Serial Number: 1 (0x1)
    Signature Algorithm: md5WithRSAEncryption
        Issuer: C=US, ST=Michigan, L=Detroit, O=FORD_CLIENT, OU=FORD_SDL_CLIENT, CN=FORD_CLIENT/emailAddress=sample@ford.com
        Validity
            Not Before: Jan  1 00:00:00 2015 GMT
            Not After : Mar 14 09:26:53 2015 GMT
        Subject: C=RU, ST=Russia, L=St. Petersburg, O=Luxoft, OU=Mobile_expired, CN=client/emailAddress=sample@luxoft.com
        Subject Public Key Info:
            Public Key Algorithm: rsaEncryption
                Public-Key: (2048 bit)
                Modulus:
                    00:d9:7e:9b:b5:e1:69:70:e7:7a:f9:7e:aa:1d:e0:
                    72:d5:b8:bc:ea:7e:e0:95:79:b4:25:0a:c0:89:03:
                    9e:5d:bf:0e:6b:24:9f:7c:a2:96:84:ca:20:66:c2:
                    20:51:14:a1:80:04:72:dc:ac:7d:ae:ab:f3:8d:d6:
                    6f:10:8c:c6:99:90:fd:70:35:9a:b7:58:51:63:4f:
                    44:26:a9:26:cd:8f:27:bb:58:27:1f:3d:b5:89:3b:
                    0b:7e:aa:d7:23:94:12:56:85:43:53:da:e5:04:45:
                    e5:ca:15:88:64:82:0a:74:6d:96:0c:8e:a8:f0:1b:
                    38:73:2a:a5:72:7d:ba:9d:c2:d5:46:52:61:03:da:
                    15:44:16:9b:a2:b4:7e:12:ac:88:22:ed:17:47:60:
                    db:1e:ac:c7:6f:eb:6d:9d:08:d7:f2:af:7b:ad:9a:
                    82:87:b0:97:7b:30:8a:85:af:9d:3f:fd:0f:91:45:
                    e1:56:d5:0b:7c:77:37:75:8a:21:39:b3:e5:6b:c6:
                    7b:ea:c1:e3:4b:25:df:24:ce:9d:68:18:48:00:3c:
                    aa:d8:ad:ea:61:64:a2:d3:fd:a4:c9:c3:0b:88:fb:
                    9e:c2:9d:90:03:82:a2:3b:14:a3:95:2c:6a:24:15:
                    c4:71:46:99:34:fc:d3:cd:60:d3:a6:3a:98:a1:9b:
                    fc:89
                Exponent: 65537 (0x10001)
    Signature Algorithm: md5WithRSAEncryption
         43:a1:14:62:90:de:28:98:0d:d5:55:40:2c:7d:b1:bc:d0:3a:
         bb:0a:9f:5d:8c:a5:42:af:da:b9:7b:b8:b5:f9:31:00:42:e2:
         01:bf:bd:a8:ad:c1:96:a4:d5:f7:23:fc:92:5d:f9:58:45:6c:
         d9:2a:87:4c:39:b2:49:b7:b9:de:13:06:e5:1c:95:c0:73:e3:
         1d:f7:4f:8a:02:b2:36:0e:17:3e:ae:73:d3:98:f5:8c:2e:df:
         1e:fa:38:22:e1:04:62:6b:b5:11:d7:ba:ee:db:4e:e6:e6:95:
         44:49:07:b0:71:19:8e:32:6b:3f:34:5b:64:1d:9c:9f:e0:5b:
         87:39:89:a7:a2:7a:8b:06:81:bc:89:28:a5:d3:96:db:14:21:
         9e:02:64:90:e9:9c:b8:e2:41:d6:95:2b:d9:cd:49:79:98:fb:
         ef:d1:8b:17:89:f9:70:d3:d2:94:57:b5:ed:e9:a4:5a:e9:6a:
         46:3a:41:b3:8d:87:9a:60:d0:8e:bb:d0:ee:7a:57:bd:56:69:
         e4:1a:50:d4:b7:a8:87:7b:8d:f8:40:3c:6b:75:00:2e:7c:41:
         5e:77:46:cd:e7:c9:bf:a1:77:bc:b3:3d:02:7c:9d:fa:08:a7:
         0e:70:c6:30:df:50:9c:79:ea:12:87:d4:05:e0:6d:bd:a8:aa:
         4c:0a:64:a0
-----BEGIN CERTIFICATE-----
MIIDojCCAooCAQEwDQYJKoZIhvcNAQEEBQAwgZgxCzAJBgNVBAYTAlVTMREwDwYD
VQQIDAhNaWNoaWdhbjEQMA4GA1UEBwwHRGV0cm9pdDEUMBIGA1UECgwLRk9SRF9D
TElFTlQxGDAWBgNVBAsMD0ZPUkRfU0RMX0NMSUVOVDEUMBIGA1UEAwwLRk9SRF9D
TElFTlQxHjAcBgkqhkiG9w0BCQEWD3NhbXBsZUBmb3JkLmNvbTAeFw0xNTAxMDEw
MDAwMDBaFw0xNTAzMTQwOTI2NTNaMIGUMQswCQYDVQQGEwJSVTEPMA0GA1UECAwG
UnVzc2lhMRcwFQYDVQQHDA5TdC4gUGV0ZXJzYnVyZzEPMA0GA1UECgwGTHV4b2Z0
MRcwFQYDVQQLDA5Nb2JpbGVfZXhwaXJlZDEPMA0GA1UEAwwGY2xpZW50MSAwHgYJ
KoZIhvcNAQkBFhFzYW1wbGVAbHV4b2Z0LmNvbTCCASIwDQYJKoZIhvcNAQEBBQAD
ggEPADCCAQoCggEBANl+m7XhaXDnevl+qh3gctW4vOp+4JV5tCUKwIkDnl2/Dmsk
n3yiloTKIGbCIFEUoYAEctysfa6r843WbxCMxpmQ/XA1mrdYUWNPRCapJs2PJ7tY
Jx89tYk7C36q1yOUElaFQ1Pa5QRF5coViGSCCnRtlgyOqPAbOHMqpXJ9up3C1UZS
YQPaFUQWm6K0fhKsiCLtF0dg2x6sx2/rbZ0I1/Kve62agoewl3swioWvnT/9D5FF
4VbVC3x3N3WKITmz5WvGe+rB40sl3yTOnWgYSAA8qtit6mFkotP9pMnDC4j7nsKd
kAOCojsUo5UsaiQVxHFGmTT8081g06Y6mKGb/IkCAwEAATANBgkqhkiG9w0BAQQF
AAOCAQEAQ6EUYpDeKJgN1VVALH2xvNA6uwqfXYylQq/auXu4tfkxAELiAb+9qK3B
lqTV9yP8kl35WEVs2SqHTDmySbe53hMG5RyVwHPjHfdPigKyNg4XPq5z05j1jC7f
Hvo4IuEEYmu1Ede67ttO5uaVREkHsHEZjjJrPzRbZB2cn+BbhzmJp6J6iwaBvIko
pdOW2xQhngJkkOmcuOJB1pUr2c1JeZj779GLF4n5cNPSlFe17emkWulqRjpBs42H
mmDQjrvQ7npXvVZp5BpQ1Leoh3uN+EA8a3UALnxBXndGzefJv6F3vLM9Anyd+gin
DnDGMN9QnHnqEofUBeBtvaiqTApkoA==
-----END CERTIFICATE-----
