Certificate:
    Data:
        Version: 1 (0x0)
        Serial Number: 1 (0x1)
    Signature Algorithm: md5WithRSAEncryption
        Issuer: C=US, ST=Michigan, L=Detroit, O=FORD_SERVER, OU=FORD_SDL_SERVER, CN=FORD/emailAddress=sample@ford.com
        Validity
            Not Before: Jan  1 00:00:00 2015 GMT
            Not After : Mar 14 09:26:53 2015 GMT
        Subject: C=RU, ST=Russia, L=St. Petersburg, O=Luxoft, OU=Mobile_expired, CN=server/emailAddress=sample@luxoft.com
        Subject Public Key Info:
            Public Key Algorithm: rsaEncryption
                Public-Key: (2048 bit)
                Modulus:
                    00:b1:2d:c6:f1:a0:dd:b9:0a:3f:41:c5:21:0e:3b:
                    eb:00:5c:7d:05:dd:2e:cb:f5:08:a3:da:12:42:e0:
                    cf:79:30:90:14:db:6a:92:09:c1:ce:96:7f:99:b6:
                    93:35:bf:3d:aa:a3:ee:bc:f8:f9:a4:ad:f2:89:da:
                    cf:7f:fe:ae:8d:54:49:72:8e:72:eb:dd:56:c0:91:
                    15:e9:c2:51:b7:69:7b:86:f0:33:99:ce:e1:e9:52:
                    09:d8:2e:e9:84:5e:1b:99:d2:f3:d8:bf:a5:c8:42:
                    94:32:3a:15:07:27:c3:a8:ef:b6:8d:5c:20:e5:ae:
                    ed:9b:74:e0:3a:0d:36:3d:ae:92:4f:ae:9f:d8:8f:
                    c4:ff:f8:06:c7:9f:64:f2:ad:db:9b:a2:ad:a8:06:
                    9e:62:d5:25:6d:1d:26:e5:c4:bc:6c:cb:fe:38:46:
                    4a:0d:31:85:51:c0:dd:e5:d8:87:5e:a7:8d:2d:56:
                    56:3c:66:57:87:8a:02:c3:67:25:82:df:57:ea:fb:
                    cf:23:15:13:c0:ce:7e:15:3a:07:50:6e:4d:bd:68:
                    4d:91:33:5e:40:b9:92:39:02:32:71:cd:08:a6:e7:
                    7e:07:b9:20:1a:26:f6:be:a8:cd:ad:79:4e:08:80:
                    67:91:07:5f:f8:ca:c5:71:27:8c:40:95:82:4c:c2:
                    8e:b9
                Exponent: 65537 (0x10001)
    Signature Algorithm: md5WithRSAEncryption
         8a:b5:db:83:36:14:d6:5d:18:c9:9e:92:9a:f0:c8:96:38:98:
         cc:fc:65:17:3a:a3:f8:99:5e:70:49:ce:81:4e:89:fe:58:63:
         f1:2a:fd:e5:94:51:53:57:2c:d3:80:5c:9e:ee:39:ac:26:df:
         40:e0:2e:5c:0b:46:4e:04:5c:55:17:c9:e4:88:5b:d2:95:7c:
         38:41:3a:b0:30:d1:f7:f5:81:74:03:94:d7:07:b5:df:2f:85:
         33:84:ce:0f:e5:b8:3a:9f:13:4c:d3:7e:8d:6e:f0:9a:34:fa:
         78:01:d6:e3:7e:21:31:2c:f8:f5:ec:ee:04:dd:51:cc:13:b8:
         5f:36:55:fc:b9:20:51:27:98:33:1c:2d:a4:4c:c2:c7:a1:8b:
         5d:93:57:4a:5b:c9:66:fc:14:34:ee:81:1c:17:af:65:b3:b6:
         a4:1b:1b:3c:66:73:1a:61:db:e8:8f:45:58:15:85:51:fc:45:
         25:76:83:c5:1c:1d:d3:69:20:31:d2:2e:a1:f5:81:a2:ed:4c:
         b9:bf:d4:16:20:c4:e9:a7:dc:62:e7:ad:36:16:56:ba:7d:b2:
         f1:0f:f4:a0:f6:d3:bb:5f:0f:31:73:65:99:64:b8:a6:e2:05:
         ed:9e:19:91:62:d0:0a:0c:e2:93:92:35:d5:24:fe:0e:54:25:
         94:4c:53:6e
-----BEGIN CERTIFICATE-----
MIIDmzCCAoMCAQEwDQYJKoZIhvcNAQEEBQAwgZExCzAJBgNVBAYTAlVTMREwDwYD
VQQIDAhNaWNoaWdhbjEQMA4GA1UEBwwHRGV0cm9pdDEUMBIGA1UECgwLRk9SRF9T
RVJWRVIxGDAWBgNVBAsMD0ZPUkRfU0RMX1NFUlZFUjENMAsGA1UEAwwERk9SRDEe
MBwGCSqGSIb3DQEJARYPc2FtcGxlQGZvcmQuY29tMB4XDTE1MDEwMTAwMDAwMFoX
DTE1MDMxNDA5MjY1M1owgZQxCzAJBgNVBAYTAlJVMQ8wDQYDVQQIDAZSdXNzaWEx
FzAVBgNVBAcMDlN0LiBQZXRlcnNidXJnMQ8wDQYDVQQKDAZMdXhvZnQxFzAVBgNV
BAsMDk1vYmlsZV9leHBpcmVkMQ8wDQYDVQQDDAZzZXJ2ZXIxIDAeBgkqhkiG9w0B
CQEWEXNhbXBsZUBsdXhvZnQuY29tMIIBIjANBgkqhkiG9w0BAQEFAAOCAQ8AMIIB
CgKCAQEAsS3G8aDduQo/QcUhDjvrAFx9Bd0uy/UIo9oSQuDPeTCQFNtqkgnBzpZ/
mbaTNb89qqPuvPj5pK3yidrPf/6ujVRJco5y691WwJEV6cJRt2l7hvAzmc7h6VIJ
2C7phF4bmdLz2L+lyEKUMjoVByfDqO+2jVwg5a7tm3TgOg02Pa6ST66f2I/E//gG
x59k8q3bm6KtqAaeYtUlbR0m5cS8bMv+OEZKDTGFUcDd5diHXqeNLVZWPGZXh4oC
w2clgt9X6vvPIxUTwM5+FToHUG5NvWhNkTNeQLmSOQIycc0Ipud+B7kgGib2vqjN
rXlOCIBnkQdf+MrFcSeMQJWCTMKOuQIDAQABMA0GCSqGSIb3DQEBBAUAA4IBAQCK
tduDNhTWXRjJnpKa8MiWOJjM/GUXOqP4mV5wSc6BTon+WGPxKv3llFFTVyzTgFye
7jmsJt9A4C5cC0ZOBFxVF8nkiFvSlXw4QTqwMNH39YF0A5TXB7XfL4UzhM4P5bg6
nxNM036NbvCaNPp4AdbjfiExLPj17O4E3VHME7hfNlX8uSBRJ5gzHC2kTMLHoYtd
k1dKW8lm/BQ07oEcF69ls7akGxs8ZnMaYdvoj0VYFYVR/EUldoPFHB3TaSAx0i6h
9YGi7Uy5v9QWIMTpp9xi5602Fla6fbLxD/Sg9tO7Xw8xc2WZZLim4gXtnhmRYtAK
DOKTkjXVJP4OVCWUTFNu
-----END CERTIFICATE-----
