Certificate:
    Data:
        Version: 1 (0x0)
        Serial Number: 1 (0x1)
    Signature Algorithm: md5WithRSAEncryption
        Issuer: C=US, ST=Michigan, L=Detroit, O=FORD_SERVER, OU=FORD_SDL_SERVER, CN=FORD/emailAddress=sample@ford.com
        Validity
            Not Before: Jan  1 00:00:00 2015 GMT
            Not After : Mar 14 09:26:53 2015 GMT
        Subject: C=RU, ST=Russia, L=St. Petersburg, O=Luxoft, OU=Mobile_expired, CN=server/emailAddress=sample@luxoft.com
        Subject Public Key Info:
            Public Key Algorithm: rsaEncryption
                Public-Key: (2048 bit)
                Modulus:
                    00:d1:b3:fb:fc:a7:8c:49:43:c4:f4:81:3b:2f:d1:
                    89:43:12:c1:9e:46:a6:52:7c:a6:1d:97:5e:c3:28:
                    ca:32:5d:66:4a:4a:88:0d:48:c8:6e:4b:1d:f1:c5:
                    c6:bb:5b:d6:96:2a:a6:c7:ef:8f:03:a0:01:48:8d:
                    87:95:5d:14:77:d2:c0:18:d8:7a:44:64:0a:6b:6a:
                    7e:df:ba:6f:6f:26:97:96:a1:90:1e:6b:87:fa:b9:
                    db:82:b7:07:42:5c:86:10:44:86:32:1a:88:67:5f:
                    76:14:f3:03:96:3f:31:34:d4:fb:d3:c4:4e:b3:e2:
                    60:fe:97:f4:1c:dd:7a:8f:4c:ad:f2:61:f1:69:78:
                    e2:31:86:7e:b9:4f:0d:c2:42:d2:37:ad:58:e1:6b:
                    b2:d9:25:2f:7c:34:ec:3d:e1:9b:7f:14:b8:46:6b:
                    6e:c8:7a:58:41:b5:51:8e:42:fb:a4:bb:3f:49:82:
                    40:c9:c4:65:25:e4:52:6c:10:8a:9e:53:b6:44:d6:
                    54:6d:3b:c5:d9:ec:bf:a2:ef:1b:22:08:54:cd:ff:
                    4f:10:f9:d7:7c:bd:3f:2e:74:2e:59:b5:53:c0:d4:
                    87:0b:65:e6:40:db:44:c0:e1:bf:2e:90:04:5a:14:
                    22:1f:57:7b:80:a6:28:95:bc:57:b0:cf:33:16:62:
                    f4:03
                Exponent: 65537 (0x10001)
    Signature Algorithm: md5WithRSAEncryption
         be:71:c2:0c:21:da:e7:eb:90:71:e5:e5:50:0b:4c:ae:dc:21:
         91:b0:af:8d:d3:eb:6d:95:5f:13:96:26:f0:16:65:d5:ee:27:
         95:83:6b:de:d1:cb:ec:fc:ed:94:c6:66:36:3b:52:9c:00:11:
         2b:9e:5d:a0:f7:06:9f:ac:7e:bf:1d:44:15:f2:e0:bd:a7:51:
         3c:d5:65:21:c3:5c:fc:03:23:40:ba:c0:43:09:0a:20:15:d6:
         4c:73:ab:2a:ca:3d:c9:2a:2d:d1:29:42:74:b7:8c:bc:75:cd:
         3c:8f:68:d5:68:fd:67:85:af:5d:22:98:13:62:32:ee:7d:38:
         63:c1:65:a3:05:17:23:53:03:c7:6f:1f:ee:f3:fa:7f:32:47:
         58:4e:0a:3f:88:b3:c0:f2:a5:94:25:c2:85:24:68:7e:fa:1b:
         f5:ff:dd:ca:b6:cc:af:46:71:23:fc:09:b8:a1:16:9f:54:dc:
         bd:c6:06:65:8f:f2:bd:43:d1:5e:a6:1a:db:bc:cc:4f:5f:e9:
         c3:1b:84:87:f5:7c:d4:f8:e2:ce:1a:ae:73:5a:29:6b:87:8f:
         cc:66:af:fd:a2:08:3f:6b:fc:1e:53:91:3a:bc:54:f6:62:58:
         27:5f:8c:77:82:f4:27:29:3c:cc:95:54:51:a1:69:34:df:a1:
         c4:51:e9:f4
-----BEGIN CERTIFICATE-----
MIIDmzCCAoMCAQEwDQYJKoZIhvcNAQEEBQAwgZExCzAJBgNVBAYTAlVTMREwDwYD
VQQIDAhNaWNoaWdhbjEQMA4GA1UEBwwHRGV0cm9pdDEUMBIGA1UECgwLRk9SRF9T
RVJWRVIxGDAWBgNVBAsMD0ZPUkRfU0RMX1NFUlZFUjENMAsGA1UEAwwERk9SRDEe
MBwGCSqGSIb3DQEJARYPc2FtcGxlQGZvcmQuY29tMB4XDTE1MDEwMTAwMDAwMFoX
DTE1MDMxNDA5MjY1M1owgZQxCzAJBgNVBAYTAlJVMQ8wDQYDVQQIDAZSdXNzaWEx
FzAVBgNVBAcMDlN0LiBQZXRlcnNidXJnMQ8wDQYDVQQKDAZMdXhvZnQxFzAVBgNV
BAsMDk1vYmlsZV9leHBpcmVkMQ8wDQYDVQQDDAZzZXJ2ZXIxIDAeBgkqhkiG9w0B
CQEWEXNhbXBsZUBsdXhvZnQuY29tMIIBIjANBgkqhkiG9w0BAQEFAAOCAQ8AMIIB
CgKCAQEA0bP7/KeMSUPE9IE7L9GJQxLBnkamUnymHZdewyjKMl1mSkqIDUjIbksd
8cXGu1vWliqmx++PA6ABSI2HlV0Ud9LAGNh6RGQKa2p+37pvbyaXlqGQHmuH+rnb
grcHQlyGEESGMhqIZ192FPMDlj8xNNT708ROs+Jg/pf0HN16j0yt8mHxaXjiMYZ+
uU8NwkLSN61Y4Wuy2SUvfDTsPeGbfxS4RmtuyHpYQbVRjkL7pLs/SYJAycRlJeRS
bBCKnlO2RNZUbTvF2ey/ou8bIghUzf9PEPnXfL0/LnQuWbVTwNSHC2XmQNtEwOG/
LpAEWhQiH1d7gKYolbxXsM8zFmL0AwIDAQABMA0GCSqGSIb3DQEBBAUAA4IBAQC+
ccIMIdrn65Bx5eVQC0yu3CGRsK+N0+ttlV8TlibwFmXV7ieVg2ve0cvs/O2UxmY2
O1KcABErnl2g9wafrH6/HUQV8uC9p1E81WUhw1z8AyNAusBDCQogFdZMc6sqyj3J
Ki3RKUJ0t4y8dc08j2jVaP1nha9dIpgTYjLufThjwWWjBRcjUwPHbx/u8/p/MkdY
Tgo/iLPA8qWUJcKFJGh++hv1/93KtsyvRnEj/Am4oRafVNy9xgZlj/K9Q9Fephrb
vMxPX+nDG4SH9XzU+OLOGq5zWilrh4/MZq/9ogg/a/weU5E6vFT2YlgnX4x3gvQn
KTzMlVRRoWk036HEUen0
-----END CERTIFICATE-----
