Certificate:
    Data:
        Version: 1 (0x0)
        Serial Number: 1 (0x1)
    Signature Algorithm: md5WithRSAEncryption
        Issuer: C=US, ST=Michigan, L=Detroit, O=FORD_SERVER, OU=FORD_SDL_SERVER, CN=FORD/emailAddress=sample@ford.com
        Validity
            Not Before: Jan  1 00:00:00 2015 GMT
            Not After : Mar 14 09:26:53 2015 GMT
        Subject: C=RU, ST=Russia, L=St. Petersburg, O=Luxoft, OU=Mobile_expired, CN=server/emailAddress=sample@luxoft.com
        Subject Public Key Info:
            Public Key Algorithm: rsaEncryption
                Public-Key: (2048 bit)
                Modulus:
                    00:b4:65:f6:89:35:39:3d:2e:71:ad:9a:6b:ba:5d:
                    46:31:ca:ca:ab:2a:30:a3:21:f5:63:59:fe:ab:a8:
                    f5:f9:85:0c:68:35:d5:35:8d:4b:fb:b7:4f:04:12:
                    27:0e:84:6a:8a:1b:eb:9d:26:cd:f2:83:a8:4a:e0:
                    30:e1:e6:0e:51:d3:a1:00:37:69:56:74:11:c6:7a:
                    5a:d0:a8:08:aa:cd:e7:d1:e0:9e:fe:70:d7:da:f2:
                    d1:3c:bc:f3:cf:ff:13:61:b7:45:60:bb:96:c1:f3:
                    d0:02:bf:45:ec:9c:ba:7a:ef:86:c7:ad:9c:c2:91:
                    ff:10:19:7c:29:05:10:0c:18:a6:89:c4:e6:09:94:
                    01:03:13:a6:f8:3e:ca:62:dc:7b:1c:73:d2:e6:2a:
                    1d:60:03:47:5e:94:20:4e:49:7c:89:21:11:e2:58:
                    51:4e:fb:47:ab:6c:68:9f:ca:e9:d7:d9:a2:ab:5a:
                    9d:b0:ef:e7:90:0c:e1:d4:73:fa:6f:a8:98:55:62:
                    46:1d:d5:21:b1:89:5f:11:69:fa:b2:e7:9b:45:58:
                    cc:74:3a:14:7d:75:5d:5a:f3:5c:3d:9f:70:e0:ed:
                    85:85:46:eb:54:98:f4:54:6e:6a:17:c7:72:04:ad:
                    3c:b8:11:05:54:a4:e8:8d:3a:87:c5:c8:f2:2e:2d:
                    ec:7f
                Exponent: 65537 (0x10001)
    Signature Algorithm: md5WithRSAEncryption
         55:e9:1f:38:39:10:23:62:86:9e:cc:f1:93:79:ed:6d:d8:9d:
         f9:2a:8e:6e:e5:3c:e9:fb:4b:f0:13:7a:7a:de:9a:32:e7:a4:
         80:f9:fc:bc:f8:da:23:c9:fa:73:7b:89:b2:e7:4a:84:5d:90:
         eb:5e:3a:9c:8a:77:43:67:af:ea:4e:1b:ce:17:3c:ff:7e:6d:
         63:8e:e8:90:7e:b7:37:1b:50:fb:87:fc:7b:9e:5d:39:1e:f2:
         63:6f:67:2d:17:1f:37:76:19:9c:8e:2b:f7:49:2c:72:a0:ae:
         dd:27:99:09:cd:d3:72:97:0f:b1:95:19:4c:f8:3f:e4:4d:b4:
         4d:c0:c5:4d:db:27:9e:4a:4c:2c:12:d4:a6:6f:9e:1d:c6:35:
         24:ec:65:c9:47:f2:92:52:16:e9:7d:36:38:ad:12:36:f3:ec:
         08:d6:48:dd:01:7b:fc:db:36:11:2b:56:cc:8e:2e:4c:45:92:
         a7:81:e2:f1:95:d0:57:6b:2c:dc:c6:89:03:38:e7:3d:db:72:
         4b:6a:3a:98:d1:88:d5:ce:f5:ff:ee:17:fb:3c:c7:d2:f5:f4:
         ec:4f:ae:d0:35:57:b7:a1:f5:c8:36:5f:08:b7:34:e6:7a:97:
         2c:d8:44:78:6c:cf:d5:70:ef:9d:bc:34:2c:fe:d6:3d:02:9d:
         09:56:97:a5
-----BEGIN CERTIFICATE-----
MIIDmzCCAoMCAQEwDQYJKoZIhvcNAQEEBQAwgZExCzAJBgNVBAYTAlVTMREwDwYD
VQQIDAhNaWNoaWdhbjEQMA4GA1UEBwwHRGV0cm9pdDEUMBIGA1UECgwLRk9SRF9T
RVJWRVIxGDAWBgNVBAsMD0ZPUkRfU0RMX1NFUlZFUjENMAsGA1UEAwwERk9SRDEe
MBwGCSqGSIb3DQEJARYPc2FtcGxlQGZvcmQuY29tMB4XDTE1MDEwMTAwMDAwMFoX
DTE1MDMxNDA5MjY1M1owgZQxCzAJBgNVBAYTAlJVMQ8wDQYDVQQIDAZSdXNzaWEx
FzAVBgNVBAcMDlN0LiBQZXRlcnNidXJnMQ8wDQYDVQQKDAZMdXhvZnQxFzAVBgNV
BAsMDk1vYmlsZV9leHBpcmVkMQ8wDQYDVQQDDAZzZXJ2ZXIxIDAeBgkqhkiG9w0B
CQEWEXNhbXBsZUBsdXhvZnQuY29tMIIBIjANBgkqhkiG9w0BAQEFAAOCAQ8AMIIB
CgKCAQEAtGX2iTU5PS5xrZprul1GMcrKqyowoyH1Y1n+q6j1+YUMaDXVNY1L+7dP
BBInDoRqihvrnSbN8oOoSuAw4eYOUdOhADdpVnQRxnpa0KgIqs3n0eCe/nDX2vLR
PLzzz/8TYbdFYLuWwfPQAr9F7Jy6eu+Gx62cwpH/EBl8KQUQDBimicTmCZQBAxOm
+D7KYtx7HHPS5iodYANHXpQgTkl8iSER4lhRTvtHq2xon8rp19miq1qdsO/nkAzh
1HP6b6iYVWJGHdUhsYlfEWn6suebRVjMdDoUfXVdWvNcPZ9w4O2FhUbrVJj0VG5q
F8dyBK08uBEFVKTojTqHxcjyLi3sfwIDAQABMA0GCSqGSIb3DQEBBAUAA4IBAQBV
6R84ORAjYoaezPGTee1t2J35Ko5u5Tzp+0vwE3p63poy56SA+fy8+Nojyfpze4my
50qEXZDrXjqcindDZ6/qThvOFzz/fm1jjuiQfrc3G1D7h/x7nl05HvJjb2ctFx83
dhmcjiv3SSxyoK7dJ5kJzdNylw+xlRlM+D/kTbRNwMVN2yeeSkwsEtSmb54dxjUk
7GXJR/KSUhbpfTY4rRI28+wI1kjdAXv82zYRK1bMji5MRZKngeLxldBXayzcxokD
OOc923JLajqY0YjVzvX/7hf7PMfS9fTsT67QNVe3ofXINl8ItzTmepcs2ER4bM/V
cO+dvDQs/tY9Ap0JVpel
-----END CERTIFICATE-----
